; Function Attrs: mustprogress nofree nounwind willreturn uwtable
define noundef ptr @_ZN3gmx17CommandLineParser4Impl12toOptionNameEPKc(ptr noundef %0) local_unnamed_addr #3 align 2 {
  %2 = alloca ptr, align 8
  %3 = load i8, ptr %0, align 1
  %.not = icmp eq i8 %3, 45
  br i1 %.not, label %4, label %14

4:                                                ; preds = %1
  %5 = getelementptr inbounds i8, ptr %0, i64 1
  %6 = load i8, ptr %5, align 1
  switch i8 %6, label %9 [
    i8 0, label %14
    i8 45, label %7
  ]

7:                                                ; preds = %4
  %8 = getelementptr inbounds i8, ptr %0, i64 2
  br label %.sink.split

9:                                                ; preds = %4
  %10 = call double @strtod(ptr noundef nonnull %0, ptr noundef nonnull %2) #18
  %11 = load ptr, ptr %2, align 8
  br label %.sink.split

.sink.split:                                      ; preds = %9, %7
  %.sink = phi ptr [ %8, %7 ], [ %11, %9 ]
  %.sink10 = phi ptr [ %8, %7 ], [ %5, %9 ]
  %12 = load i8, ptr %.sink, align 1
  %13 = icmp eq i8 %12, 0
  %spec.select = select i1 %13, ptr null, ptr %.sink10
  br label %14

14:                                               ; preds = %.sink.split, %1, %4
  %.0 = phi ptr [ null, %4 ], [ null, %1 ], [ %spec.select, %.sink.split ]
  ret ptr %.0
}